#include <math.h>
#include <stdio.h>
#include <stdlib.h>
#include <string.h>

int main()
{
	int m,n,i,s;
	char a[1000][100];
	for(i=1;;i++)
	{
		gets(a[i]);
		if(strcmp(a[i],"end")==0)
			break;
	}
	for(s=i-1;s>0;s--)
		printf("%s\n",a[s]);
	return 0;
}