; ModuleID = 'source-C-CXX/30/521.c'
source_filename = "source-C-CXX/30/521.c"
target datalayout = "e-m:e-p270:32:32-p271:32:32-p272:64:64-i64:64-f80:128-n8:16:32:64-S128"
target triple = "x86_64-pc-linux-gnu"

@.str = private unnamed_addr constant [4 x i8] c"end\00", align 1

; Function Attrs: nounwind sspstrong uwtable
define dso_local i32 @main() local_unnamed_addr #0 {
  %1 = alloca [1000 x [100 x i8]], align 16
  %2 = getelementptr inbounds [1000 x [100 x i8]], [1000 x [100 x i8]]* %1, i64 0, i64 0, i64 0
  call void @llvm.lifetime.start.p0i8(i64 100000, i8* nonnull %2) #5
  br label %3

3:                                                ; preds = %3, %0
  %4 = phi i64 [ %9, %3 ], [ 1, %0 ]
  %5 = getelementptr inbounds [1000 x [100 x i8]], [1000 x [100 x i8]]* %1, i64 0, i64 %4, i64 0
  %6 = call i32 (i8*, ...) bitcast (i32 (...)* @gets to i32 (i8*, ...)*)(i8* nonnull %5) #5
  %7 = call i32 @strcmp(i8* noundef nonnull %5, i8* noundef nonnull dereferenceable(4) getelementptr inbounds ([4 x i8], [4 x i8]* @.str, i64 0, i64 0)) #6
  %8 = icmp eq i32 %7, 0
  %9 = add nuw i64 %4, 1
  br i1 %8, label %10, label %3

10:                                               ; preds = %3
  %11 = trunc i64 %4 to i32
  %12 = icmp ugt i32 %11, 1
  br i1 %12, label %13, label %25

13:                                               ; preds = %10
  %14 = and i64 %4, 4294967295
  br label %15

15:                                               ; preds = %13, %15
  %16 = phi i64 [ %14, %13 ], [ %24, %15 ]
  %17 = phi i32 [ %11, %13 ], [ %18, %15 ]
  %18 = add nsw i32 %17, -1
  %19 = zext i32 %18 to i64
  %20 = getelementptr inbounds [1000 x [100 x i8]], [1000 x [100 x i8]]* %1, i64 0, i64 %19, i64 0
  %21 = call i32 @puts(i8* nonnull %20)
  %22 = trunc i64 %16 to i32
  %23 = icmp sgt i32 %22, 2
  %24 = add nsw i64 %16, -1
  br i1 %23, label %15, label %25, !llvm.loop !5

25:                                               ; preds = %15, %10
  call void @llvm.lifetime.end.p0i8(i64 100000, i8* nonnull %2) #5
  ret i32 0
}

; Function Attrs: argmemonly mustprogress nofree nosync nounwind willreturn
declare void @llvm.lifetime.start.p0i8(i64 immarg, i8* nocapture) #1

declare i32 @gets(...) local_unnamed_addr #2

; Function Attrs: argmemonly mustprogress nofree nounwind readonly willreturn
declare i32 @strcmp(i8* nocapture, i8* nocapture) local_unnamed_addr #3

; Function Attrs: argmemonly mustprogress nofree nosync nounwind willreturn
declare void @llvm.lifetime.end.p0i8(i64 immarg, i8* nocapture) #1

; Function Attrs: nofree nounwind
declare noundef i32 @puts(i8* nocapture noundef readonly) local_unnamed_addr #4


!llvm.module.flags = !{!0, !1, !2, !3}
!llvm.ident = !{!4}

!0 = !{i32 1, !"wchar_size", i32 4}
!1 = !{i32 7, !"PIC Level", i32 2}
!2 = !{i32 7, !"PIE Level", i32 2}
!3 = !{i32 7, !"uwtable", i32 1}
!4 = !{!"clang version 13.0.0"}
!5 = distinct !{!5, !6}
!6 = !{!"llvm.loop.mustprogress"}
